; Function Attrs: mustprogress nounwind uwtable
define void @_ZN16RBTestDataModuleD2Ev(ptr nocapture noundef nonnull align 8 dereferenceable(76) %this) unnamed_addr #0 align 2 personality ptr @__gxx_personality_v0 {
entry:
  store ptr getelementptr inbounds ({ [7 x ptr] }, ptr @_ZTV16RBTestDataModule, i64 0, i32 0, i64 2), ptr %this, align 8
  %fTestData = getelementptr inbounds i8, ptr %this, i64 40
  %0 = load ptr, ptr %fTestData, align 8
  invoke void @ures_close_75(ptr noundef %0)
          to label %invoke.cont unwind label %terminate.lpad

invoke.cont:                                      ; preds = %entry
  %fModuleBundle = getelementptr inbounds i8, ptr %this, i64 32
  %1 = load ptr, ptr %fModuleBundle, align 8
  invoke void @ures_close_75(ptr noundef %1)
          to label %invoke.cont2 unwind label %terminate.lpad

invoke.cont2:                                     ; preds = %invoke.cont
  %fInfoRB = getelementptr inbounds i8, ptr %this, i64 48
  %2 = load ptr, ptr %fInfoRB, align 8
  invoke void @ures_close_75(ptr noundef %2)
          to label %invoke.cont3 unwind label %terminate.lpad

invoke.cont3:                                     ; preds = %invoke.cont2
  %tdpath = getelementptr inbounds i8, ptr %this, i64 64
  %3 = load ptr, ptr %tdpath, align 8
  invoke void @uprv_free_75(ptr noundef %3)
          to label %invoke.cont4 unwind label %terminate.lpad

invoke.cont4:                                     ; preds = %invoke.cont3
  store ptr getelementptr inbounds ({ [7 x ptr] }, ptr @_ZTV14TestDataModule, i64 0, i32 0, i64 2), ptr %this, align 8
  %fInfo.i = getelementptr inbounds i8, ptr %this, i64 16
  %4 = load ptr, ptr %fInfo.i, align 8
  %cmp.not.i = icmp eq ptr %4, null
  br i1 %cmp.not.i, label %_ZN14TestDataModuleD2Ev.exit, label %delete.notnull.i

delete.notnull.i:                                 ; preds = %invoke.cont4
  %vtable.i = load ptr, ptr %4, align 8
  %vfn.i = getelementptr inbounds i8, ptr %vtable.i, i64 8
  %5 = load ptr, ptr %vfn.i, align 8
  tail call void %5(ptr noundef nonnull align 8 dereferenceable(8) %4) #20
  br label %_ZN14TestDataModuleD2Ev.exit

_ZN14TestDataModuleD2Ev.exit:                     ; preds = %invoke.cont4, %delete.notnull.i
  ret void

terminate.lpad:                                   ; preds = %invoke.cont3, %invoke.cont2, %invoke.cont, %entry
  %6 = landingpad { ptr, i32 }
          catch ptr null
  %7 = extractvalue { ptr, i32 } %6, 0
  tail call void @__clang_call_terminate(ptr %7) #22
  unreachable
}